; Function Attrs: mustprogress nofree norecurse nosync nounwind sspstrong willreturn memory(read, inaccessiblemem: none) uwtable
define internal i64 @rb_hash_default_proc(i64 noundef %0) #8 {
  %2 = icmp eq i64 %0, 0
  %3 = and i64 %0, 7
  %4 = icmp ne i64 %3, 0
  %5 = or i1 %2, %4
  br i1 %5, label %RB_FL_TEST.exit.thread, label %RB_FL_ABLE.exit.i

RB_FL_ABLE.exit.i:                                ; preds = %1
  %6 = inttoptr i64 %0 to ptr
  %7 = load i64, ptr %6, align 8, !tbaa !11
  %8 = and i64 %7, 31
  %.not.i = icmp eq i64 %8, 27
  %9 = and i64 %7, 16384
  %.not = icmp eq i64 %9, 0
  %or.cond = or i1 %.not.i, %.not
  br i1 %or.cond, label %RB_FL_TEST.exit.thread, label %10

10:                                               ; preds = %RB_FL_ABLE.exit.i
  %11 = getelementptr inbounds nuw i8, ptr %6, i64 16
  %12 = load i64, ptr %11, align 8, !tbaa !56
  br label %RB_FL_TEST.exit.thread

RB_FL_TEST.exit.thread:                           ; preds = %RB_FL_ABLE.exit.i, %1, %10
  %.0 = phi i64 [ %12, %10 ], [ 4, %1 ], [ 4, %RB_FL_ABLE.exit.i ]
  ret i64 %.0
}